; Function Attrs: mustprogress uwtable
define noundef double @_ZN8QuantLib13BondFunctions10cleanPriceERKNS_4BondERKNS_12InterestRateENS_4DateE(ptr noundef nonnull align 8 dereferenceable(248) %bond, ptr noundef nonnull align 8 dereferenceable(40) %yield, i64 %settlement.coerce) local_unnamed_addr #3 align 2 {
entry:
  %call = tail call noundef double @_ZN8QuantLib13BondFunctions10dirtyPriceERKNS_4BondERKNS_12InterestRateENS_4DateE(ptr noundef nonnull align 8 dereferenceable(248) %bond, ptr noundef nonnull align 8 dereferenceable(40) %yield, i64 %settlement.coerce)
  %vtable = load ptr, ptr %bond, align 8, !tbaa !8
  %vfn = getelementptr inbounds i8, ptr %vtable, i64 88
  %0 = load ptr, ptr %vfn, align 8
  %call4 = tail call noundef double %0(ptr noundef nonnull align 8 dereferenceable(248) %bond, i64 %settlement.coerce)
  %sub = fsub double %call, %call4
  ret double %sub
}